; Function Attrs: mustprogress nofree norecurse nosync nounwind willreturn memory(read, argmem: readwrite, inaccessiblemem: none) uwtable
define void @_ZN5folly14StrandExecutorC2ESt10shared_ptrINS_13StrandContextEENS_8Executor9KeepAliveIS4_EE(ptr noundef nonnull writeonly align 8 captures(none) dereferenceable(40) initializes((0, 40)) %0, ptr noundef readonly captures(none) %1, ptr noundef captures(none) %2, ptr noundef captures(none) %3) unnamed_addr #36 align 2 personality ptr @__gxx_personality_v0 {
  %5 = getelementptr inbounds nuw i8, ptr %1, i64 8
  %6 = getelementptr inbounds nuw i8, ptr %1, i64 16
  %7 = load ptr, ptr %6, align 8
  store ptr %7, ptr %0, align 8, !tbaa !17
  %8 = getelementptr inbounds nuw i8, ptr %1, i64 24
  %9 = load ptr, ptr %8, align 8
  %10 = getelementptr i8, ptr %7, i64 -72
  %11 = load i64, ptr %10, align 8
  %12 = getelementptr inbounds i8, ptr %0, i64 %11
  store ptr %9, ptr %12, align 8, !tbaa !17
  %13 = load ptr, ptr %5, align 8
  store ptr %13, ptr %0, align 8, !tbaa !17
  %14 = getelementptr inbounds nuw i8, ptr %1, i64 32
  %15 = load ptr, ptr %14, align 8
  %16 = getelementptr i8, ptr %13, i64 -72
  %17 = load i64, ptr %16, align 8
  %18 = getelementptr inbounds i8, ptr %0, i64 %17
  store ptr %15, ptr %18, align 8, !tbaa !17
  %19 = load ptr, ptr %1, align 8
  store ptr %19, ptr %0, align 8, !tbaa !17
  %20 = getelementptr inbounds nuw i8, ptr %1, i64 40
  %21 = load ptr, ptr %20, align 8
  %22 = getelementptr i8, ptr %19, i64 -72
  %23 = load i64, ptr %22, align 8
  %24 = getelementptr inbounds i8, ptr %0, i64 %23
  store ptr %21, ptr %24, align 8, !tbaa !17
  %25 = getelementptr inbounds nuw i8, ptr %0, i64 8
  store i64 1, ptr %25, align 8, !tbaa !55
  %26 = getelementptr inbounds nuw i8, ptr %0, i64 16
  %27 = load i64, ptr %3, align 8, !tbaa !25
  store i64 0, ptr %3, align 8, !tbaa !25
  store i64 %27, ptr %26, align 8, !tbaa !22
  %28 = getelementptr inbounds nuw i8, ptr %0, i64 24
  %29 = load ptr, ptr %2, align 8, !tbaa !26
  store ptr %29, ptr %28, align 8, !tbaa !26
  %30 = getelementptr inbounds nuw i8, ptr %0, i64 32
  store ptr null, ptr %30, align 8, !tbaa !7
  %31 = getelementptr inbounds nuw i8, ptr %2, i64 8
  %32 = load ptr, ptr %31, align 8, !tbaa !7
  store ptr null, ptr %31, align 8, !tbaa !7
  store ptr %32, ptr %30, align 8, !tbaa !7
  store ptr null, ptr %2, align 8, !tbaa !26
  ret void
}